; Function Attrs: mustprogress nounwind uwtable
define dso_local noundef i64 @_ZNK4node6crypto14ManagedEVPPKey19size_of_private_keyEv(ptr nocapture noundef nonnull readonly align 8 dereferenceable(32) %this) local_unnamed_addr #3 align 2 {
entry:
  %len = alloca i64, align 8
  store i64 0, ptr %len, align 8
  %pkey_ = getelementptr inbounds i8, ptr %this, i64 8
  %0 = load ptr, ptr %pkey_, align 8
  %cmp.i.not = icmp eq ptr %0, null
  br i1 %cmp.i.not, label %cond.end, label %land.lhs.true

land.lhs.true:                                    ; preds = %entry
  %call4 = call i32 @EVP_PKEY_get_raw_private_key(ptr noundef nonnull %0, ptr noundef null, ptr noundef nonnull %len) #24
  %cmp = icmp eq i32 %call4, 1
  %1 = load i64, ptr %len, align 8
  %spec.select = select i1 %cmp, i64 %1, i64 0
  br label %cond.end

cond.end:                                         ; preds = %land.lhs.true, %entry
  %cond = phi i64 [ 0, %entry ], [ %spec.select, %land.lhs.true ]
  ret i64 %cond
}